target datalayout = "e-m:e-p270:32:32-p271:32:32-p272:64:64-i64:64-i128:128-f80:128-n8:16:32:64-S128"
target triple = "x86_64-pc-linux-gnu"

%"class.llvm::SmallVectorBase" = type { ptr, i32, i32 }
%"class.std::__cxx11::basic_string" = type { %"struct.std::__cxx11::basic_string<char>::_Alloc_hider", i64, %union.anon }
%"struct.std::__cxx11::basic_string<char>::_Alloc_hider" = type { ptr }
%union.anon = type { i64, [8 x i8] }
%"class.clang::SemaBase::ImmediateDiagBuilder" = type <{ %"class.clang::DiagnosticBuilder.base", [6 x i8], ptr, i32, [4 x i8] }>
%"class.clang::DiagnosticBuilder.base" = type <{ %"class.clang::StreamingDiagnostic", ptr, i8, i8 }>
%"class.clang::StreamingDiagnostic" = type { ptr, ptr }
%"class.clang::DiagnosticBuilder" = type <{ %"class.clang::StreamingDiagnostic", ptr, i8, i8, [6 x i8] }>
%"class.clang::StreamingDiagnostic::DiagStorageAllocator" = type <{ [16 x %"struct.clang::DiagnosticStorage"], [16 x ptr], i32, [4 x i8] }>
%"struct.clang::DiagnosticStorage" = type { i8, [10 x i8], [10 x i64], [10 x %"class.std::__cxx11::basic_string"], %"class.llvm::SmallVector.863", %"class.llvm::SmallVector.868" }
%"class.llvm::SmallVector.863" = type { %"class.llvm::SmallVectorImpl.864", %"struct.llvm::SmallVectorStorage.867" }
%"class.llvm::SmallVectorImpl.864" = type { %"class.llvm::SmallVectorTemplateBase.865" }
%"class.llvm::SmallVectorTemplateBase.865" = type { %"class.llvm::SmallVectorTemplateCommon.866" }
%"class.llvm::SmallVectorTemplateCommon.866" = type { %"class.llvm::SmallVectorBase" }
%"struct.llvm::SmallVectorStorage.867" = type { [96 x i8] }
%"class.llvm::SmallVector.868" = type { %"class.llvm::SmallVectorImpl.869", %"struct.llvm::SmallVectorStorage.872" }
%"class.llvm::SmallVectorImpl.869" = type { %"class.llvm::SmallVectorTemplateBase.870" }
%"class.llvm::SmallVectorTemplateBase.870" = type { %"class.llvm::SmallVectorTemplateCommon.871" }
%"class.llvm::SmallVectorTemplateCommon.871" = type { %"class.llvm::SmallVectorBase" }
%"struct.llvm::SmallVectorStorage.872" = type { [384 x i8] }

; Function Attrs: mustprogress nounwind uwtable
define linkonce_odr hidden void @_ZN5clang19StreamingDiagnostic20DiagStorageAllocator10DeallocateEPNS_17DiagnosticStorageE(ptr noundef nonnull align 8 dereferenceable(14980) %0, ptr noundef %1) #0 comdat align 2 {
  %3 = alloca ptr, align 8
  %4 = alloca ptr, align 8
  store ptr %0, ptr %3, align 8
  store ptr %1, ptr %4, align 8
  %5 = load ptr, ptr %3, align 8
  %6 = load ptr, ptr %4, align 8
  %7 = getelementptr inbounds nuw %"class.clang::StreamingDiagnostic::DiagStorageAllocator", ptr %5, i32 0, i32 0
  %8 = getelementptr inbounds [16 x %"struct.clang::DiagnosticStorage"], ptr %7, i64 0, i64 0
  %9 = icmp uge ptr %6, %8
  br i1 %9, label %10, label %24

10:                                               ; preds = %2
  %11 = load ptr, ptr %4, align 8
  %12 = getelementptr inbounds nuw %"class.clang::StreamingDiagnostic::DiagStorageAllocator", ptr %5, i32 0, i32 0
  %13 = getelementptr inbounds [16 x %"struct.clang::DiagnosticStorage"], ptr %12, i64 0, i64 0
  %14 = getelementptr inbounds %"struct.clang::DiagnosticStorage", ptr %13, i64 16
  %15 = icmp ule ptr %11, %14
  br i1 %15, label %16, label %24

16:                                               ; preds = %10
  %17 = load ptr, ptr %4, align 8
  %18 = getelementptr inbounds nuw %"class.clang::StreamingDiagnostic::DiagStorageAllocator", ptr %5, i32 0, i32 1
  %19 = getelementptr inbounds nuw %"class.clang::StreamingDiagnostic::DiagStorageAllocator", ptr %5, i32 0, i32 2
  %20 = load i32, ptr %19, align 8
  %21 = add i32 %20, 1
  store i32 %21, ptr %19, align 8
  %22 = zext i32 %20 to i64
  %23 = getelementptr inbounds [16 x ptr], ptr %18, i64 0, i64 %22
  store ptr %17, ptr %23, align 8
  br label %28

24:                                               ; preds = %10, %2
  %25 = load ptr, ptr %4, align 8
  %26 = icmp eq ptr %25, null
  br i1 %26, label %28, label %27

27:                                               ; preds = %24
  call void @_ZN5clang17DiagnosticStorageD2Ev(ptr noundef nonnull align 8 dereferenceable(928) %25) #7
  call void @_ZdlPvm(ptr noundef %25, i64 noundef 928) #8
  br label %28

28:                                               ; preds = %27, %24, %16
  ret void
}

; Function Attrs: mustprogress nounwind uwtable
define linkonce_odr hidden void @_ZN5clang19StreamingDiagnostic15freeStorageSlowEv(ptr noundef nonnull align 8 dereferenceable(16) %0) #0 comdat align 2 {
  %2 = alloca ptr, align 8
  store ptr %0, ptr %2, align 8
  %3 = load ptr, ptr %2, align 8
  %4 = getelementptr inbounds nuw %"class.clang::StreamingDiagnostic", ptr %3, i32 0, i32 1
  %5 = load ptr, ptr %4, align 8
  %6 = icmp ne ptr %5, null
  br i1 %6, label %8, label %7

7:                                                ; preds = %1
  br label %14

8:                                                ; preds = %1
  %9 = getelementptr inbounds nuw %"class.clang::StreamingDiagnostic", ptr %3, i32 0, i32 1
  %10 = load ptr, ptr %9, align 8
  %11 = getelementptr inbounds nuw %"class.clang::StreamingDiagnostic", ptr %3, i32 0, i32 0
  %12 = load ptr, ptr %11, align 8
  call void @_ZN5clang19StreamingDiagnostic20DiagStorageAllocator10DeallocateEPNS_17DiagnosticStorageE(ptr noundef nonnull align 8 dereferenceable(14980) %10, ptr noundef %12)
  %13 = getelementptr inbounds nuw %"class.clang::StreamingDiagnostic", ptr %3, i32 0, i32 0
  store ptr null, ptr %13, align 8
  br label %14

14:                                               ; preds = %8, %7
  ret void
}

; Function Attrs: mustprogress nounwind uwtable
define linkonce_odr hidden void @_ZN5clang19StreamingDiagnostic11freeStorageEv(ptr noundef nonnull align 8 dereferenceable(16) %0) #0 comdat align 2 {
  %2 = alloca ptr, align 8
  store ptr %0, ptr %2, align 8
  %3 = load ptr, ptr %2, align 8
  %4 = getelementptr inbounds nuw %"class.clang::StreamingDiagnostic", ptr %3, i32 0, i32 0
  %5 = load ptr, ptr %4, align 8
  %6 = icmp ne ptr %5, null
  br i1 %6, label %8, label %7

7:                                                ; preds = %1
  br label %9

8:                                                ; preds = %1
  call void @_ZN5clang19StreamingDiagnostic15freeStorageSlowEv(ptr noundef nonnull align 8 dereferenceable(16) %3)
  br label %9

9:                                                ; preds = %8, %7
  ret void
}

; Function Attrs: mustprogress nounwind uwtable
define linkonce_odr hidden void @_ZN5clang19StreamingDiagnosticD2Ev(ptr noundef nonnull align 8 dereferenceable(16) %0) unnamed_addr #0 comdat align 2 {
  %2 = alloca ptr, align 8
  store ptr %0, ptr %2, align 8
  %3 = load ptr, ptr %2, align 8
  call void @_ZN5clang19StreamingDiagnostic11freeStorageEv(ptr noundef nonnull align 8 dereferenceable(16) %3)
  ret void
}

; Function Attrs: mustprogress nounwind uwtable
define linkonce_odr hidden noundef zeroext i1 @_ZN5clang17DiagnosticBuilder4EmitEv(ptr noundef nonnull align 8 dereferenceable(26) %0) #0 comdat align 2 {
  %2 = alloca i1, align 1
  %3 = alloca ptr, align 8
  %4 = alloca i8, align 1
  store ptr %0, ptr %3, align 8
  %5 = load ptr, ptr %3, align 8
  %6 = call noundef zeroext i1 @_ZNK5clang17DiagnosticBuilder8isActiveEv(ptr noundef nonnull align 8 dereferenceable(26) %5)
  br i1 %6, label %8, label %7

7:                                                ; preds = %1
  store i1 false, ptr %2, align 1
  br label %18

8:                                                ; preds = %1
  %9 = getelementptr inbounds nuw %"class.clang::DiagnosticBuilder", ptr %5, i32 0, i32 1
  %10 = load ptr, ptr %9, align 8
  %11 = getelementptr inbounds nuw %"class.clang::DiagnosticBuilder", ptr %5, i32 0, i32 3
  %12 = load i8, ptr %11, align 1
  %13 = trunc i8 %12 to i1
  %14 = call noundef zeroext i1 @_ZN5clang17DiagnosticsEngine21EmitCurrentDiagnosticEb(ptr noundef nonnull align 8 dereferenceable(1304) %10, i1 noundef zeroext %13)
  %15 = zext i1 %14 to i8
  store i8 %15, ptr %4, align 1
  call void @_ZNK5clang17DiagnosticBuilder5ClearEv(ptr noundef nonnull align 8 dereferenceable(26) %5)
  %16 = load i8, ptr %4, align 1
  %17 = trunc i8 %16 to i1
  store i1 %17, ptr %2, align 1
  br label %18

18:                                               ; preds = %8, %7
  %19 = load i1, ptr %2, align 1
  ret i1 %19
}

; Function Attrs: mustprogress nounwind uwtable
define linkonce_odr hidden void @_ZN5clang17DiagnosticBuilderD2Ev(ptr noundef nonnull align 8 dereferenceable(26) %0) unnamed_addr #0 comdat align 2 {
  %2 = alloca ptr, align 8
  store ptr %0, ptr %2, align 8
  %3 = load ptr, ptr %2, align 8
  %4 = call noundef zeroext i1 @_ZN5clang17DiagnosticBuilder4EmitEv(ptr noundef nonnull align 8 dereferenceable(26) %3)
  call void @_ZN5clang19StreamingDiagnosticD2Ev(ptr noundef nonnull align 8 dereferenceable(16) %3) #7
  ret void
}

; Function Attrs: mustprogress nounwind uwtable
define linkonce_odr hidden void @_ZNK5clang17DiagnosticBuilder5ClearEv(ptr noundef nonnull align 8 dereferenceable(26) %0) #0 comdat align 2 {
  %2 = alloca ptr, align 8
  store ptr %0, ptr %2, align 8
  %3 = load ptr, ptr %2, align 8
  %4 = getelementptr inbounds nuw %"class.clang::DiagnosticBuilder", ptr %3, i32 0, i32 1
  store ptr null, ptr %4, align 8
  %5 = getelementptr inbounds nuw %"class.clang::DiagnosticBuilder", ptr %3, i32 0, i32 2
  store i8 0, ptr %5, align 8
  %6 = getelementptr inbounds nuw %"class.clang::DiagnosticBuilder", ptr %3, i32 0, i32 3
  store i8 0, ptr %6, align 1
  ret void
}

; Function Attrs: mustprogress nounwind uwtable
define linkonce_odr hidden noundef zeroext i1 @_ZNK5clang17DiagnosticBuilder8isActiveEv(ptr noundef nonnull align 8 dereferenceable(26) %0) #0 comdat align 2 {
  %2 = alloca ptr, align 8
  store ptr %0, ptr %2, align 8
  %3 = load ptr, ptr %2, align 8
  %4 = getelementptr inbounds nuw %"class.clang::DiagnosticBuilder", ptr %3, i32 0, i32 2
  %5 = load i8, ptr %4, align 8
  %6 = trunc i8 %5 to i1
  ret i1 %6
}

; Function Attrs: mustprogress nounwind uwtable
define dso_local void @_ZN5clang8SemaBase20ImmediateDiagBuilderD2Ev(ptr noundef nonnull align 8 dereferenceable(44) %0) unnamed_addr #0 align 2 {
  %2 = alloca ptr, align 8
  %3 = alloca i32, align 4
  store ptr %0, ptr %2, align 8
  %4 = load ptr, ptr %2, align 8
  %5 = call noundef zeroext i1 @_ZNK5clang17DiagnosticBuilder8isActiveEv(ptr noundef nonnull align 8 dereferenceable(26) %4)
  br i1 %5, label %7, label %6

6:                                                ; preds = %1
  store i32 1, ptr %3, align 4
  br label %12

7:                                                ; preds = %1
  call void @_ZNK5clang17DiagnosticBuilder5ClearEv(ptr noundef nonnull align 8 dereferenceable(26) %4)
  %8 = getelementptr inbounds nuw %"class.clang::SemaBase::ImmediateDiagBuilder", ptr %4, i32 0, i32 2
  %9 = load ptr, ptr %8, align 8
  %10 = getelementptr inbounds nuw %"class.clang::SemaBase::ImmediateDiagBuilder", ptr %4, i32 0, i32 3
  %11 = load i32, ptr %10, align 8
  call void @_ZN5clang4Sema21EmitCurrentDiagnosticEj(ptr noundef nonnull align 8 dereferenceable(17560) %9, i32 noundef %11)
  store i32 0, ptr %3, align 4
  br label %12

12:                                               ; preds = %7, %6
  call void @_ZN5clang17DiagnosticBuilderD2Ev(ptr noundef nonnull align 8 dereferenceable(26) %4) #7
  %13 = load i32, ptr %3, align 4
  switch i32 %13, label %15 [
    i32 0, label %14
    i32 1, label %14
  ]

14:                                               ; preds = %12, %12
  ret void

15:                                               ; preds = %12
  unreachable
}