; Function Attrs: mustprogress nounwind uwtable
define dso_local void @_ZN5clang8SemaBase20ImmediateDiagBuilderD2Ev(ptr noundef nonnull align 8 captures(none) dereferenceable(44) %0) unnamed_addr #2 align 2 {
  %2 = getelementptr inbounds nuw i8, ptr %0, i64 24
  %3 = load i8, ptr %2, align 8
  %4 = trunc i8 %3 to i1
  br i1 %4, label %5, label %12

5:                                                ; preds = %1
  %6 = getelementptr inbounds nuw i8, ptr %0, i64 16
  store ptr null, ptr %6, align 8
  store i8 0, ptr %2, align 8
  %7 = getelementptr inbounds nuw i8, ptr %0, i64 25
  store i8 0, ptr %7, align 1
  %8 = getelementptr inbounds nuw i8, ptr %0, i64 32
  %9 = load ptr, ptr %8, align 8
  %10 = getelementptr inbounds nuw i8, ptr %0, i64 40
  %11 = load i32, ptr %10, align 8
  tail call void @_ZN5clang4Sema21EmitCurrentDiagnosticEj(ptr noundef nonnull align 8 dereferenceable(17560) %9, i32 noundef %11) #15
  %.pre = load i8, ptr %2, align 8
  br label %12

12:                                               ; preds = %1, %5
  %13 = phi i8 [ %3, %1 ], [ %.pre, %5 ]
  %14 = trunc i8 %13 to i1
  br i1 %14, label %15, label %_ZN5clang17DiagnosticBuilder4EmitEv.exit.i

15:                                               ; preds = %12
  %16 = getelementptr inbounds nuw i8, ptr %0, i64 16
  %17 = load ptr, ptr %16, align 8
  %18 = getelementptr inbounds nuw i8, ptr %0, i64 25
  %19 = load i8, ptr %18, align 1
  %20 = trunc i8 %19 to i1
  %21 = tail call noundef zeroext i1 @_ZN5clang17DiagnosticsEngine21EmitCurrentDiagnosticEb(ptr noundef nonnull align 8 dereferenceable(1304) %17, i1 noundef zeroext %20) #15
  store ptr null, ptr %16, align 8
  store i8 0, ptr %2, align 8
  store i8 0, ptr %18, align 1
  br label %_ZN5clang17DiagnosticBuilder4EmitEv.exit.i

_ZN5clang17DiagnosticBuilder4EmitEv.exit.i:       ; preds = %15, %12
  %22 = load ptr, ptr %0, align 8
  %.not.i.i.i = icmp eq ptr %22, null
  br i1 %.not.i.i.i, label %_ZN5clang17DiagnosticBuilderD2Ev.exit, label %23

23:                                               ; preds = %_ZN5clang17DiagnosticBuilder4EmitEv.exit.i
  %24 = getelementptr inbounds nuw i8, ptr %0, i64 8
  %25 = load ptr, ptr %24, align 8
  %.not.i.i.i.i = icmp eq ptr %25, null
  br i1 %.not.i.i.i.i, label %_ZN5clang17DiagnosticBuilderD2Ev.exit, label %26

26:                                               ; preds = %23
  %27 = icmp uge ptr %22, %25
  %28 = getelementptr inbounds nuw i8, ptr %25, i64 14848
  %29 = icmp ule ptr %22, %28
  %or.cond.i.i.i.i.i = select i1 %27, i1 %29, i1 false
  br i1 %or.cond.i.i.i.i.i, label %30, label %36

30:                                               ; preds = %26
  %31 = getelementptr inbounds nuw i8, ptr %25, i64 14976
  %32 = load i32, ptr %31, align 8
  %33 = add i32 %32, 1
  store i32 %33, ptr %31, align 8
  %34 = zext i32 %32 to i64
  %35 = getelementptr inbounds nuw [16 x ptr], ptr %28, i64 0, i64 %34
  store ptr %22, ptr %35, align 8
  br label %_ZN5clang19StreamingDiagnostic20DiagStorageAllocator10DeallocateEPNS_17DiagnosticStorageE.exit.i.i.i.i

36:                                               ; preds = %26
  tail call void @_ZN5clang17DiagnosticStorageD2Ev(ptr noundef nonnull align 8 dereferenceable(928) %22) #15
  tail call void @_ZdlPvm(ptr noundef nonnull %22, i64 noundef 928) #16
  br label %_ZN5clang19StreamingDiagnostic20DiagStorageAllocator10DeallocateEPNS_17DiagnosticStorageE.exit.i.i.i.i

_ZN5clang19StreamingDiagnostic20DiagStorageAllocator10DeallocateEPNS_17DiagnosticStorageE.exit.i.i.i.i: ; preds = %36, %30
  store ptr null, ptr %0, align 8
  br label %_ZN5clang17DiagnosticBuilderD2Ev.exit

_ZN5clang17DiagnosticBuilderD2Ev.exit:            ; preds = %_ZN5clang17DiagnosticBuilder4EmitEv.exit.i, %23, %_ZN5clang19StreamingDiagnostic20DiagStorageAllocator10DeallocateEPNS_17DiagnosticStorageE.exit.i.i.i.i
  ret void
}